target datalayout = "e-m:e-p270:32:32-p271:32:32-p272:64:64-i64:64-i128:128-f80:128-n8:16:32:64-S128"
target triple = "x86_64-pc-linux-gnu"

%"class.clang::Expr" = type { %"class.clang::ValueStmt", %"class.clang::QualType" }
%"class.clang::ValueStmt" = type { %"class.clang::Stmt" }
%"class.clang::Stmt" = type { %union.anon }
%union.anon = type { %"class.clang::Stmt::PseudoObjectExprBitfields" }
%"class.clang::Stmt::PseudoObjectExprBitfields" = type { i64 }
%"class.clang::QualType" = type { %"class.llvm::PointerIntPair" }
%"class.llvm::PointerIntPair" = type { %"struct.llvm::detail::PunnedPointer" }
%"struct.llvm::detail::PunnedPointer" = type { [8 x i8] }
%"class.clang::Stmt::ExprBitfields" = type <{ i8, i16, i8 }>
%"class.clang::SourceLocation" = type { i32 }
%"class.clang::ExtVectorElementExpr" = type <{ %"class.clang::Expr", ptr, ptr, %"class.clang::SourceLocation", [4 x i8] }>

; Function Attrs: mustprogress nounwind uwtable
define linkonce_odr hidden noundef ptr @_ZN4llvm16cast_convert_valIN5clang4ExprEPNS1_4StmtES4_E4doitEPKS3_(ptr noundef %0) #0 comdat align 2 {
  %2 = alloca ptr, align 8
  store ptr %0, ptr %2, align 8
  %3 = load ptr, ptr %2, align 8
  ret ptr %3
}

; Function Attrs: mustprogress nounwind uwtable
define linkonce_odr hidden noundef ptr @_ZN4llvm8CastInfoIN5clang4ExprEPNS1_4StmtEvE6doCastERKS4_(ptr noundef nonnull align 8 dereferenceable(8) %0) #0 comdat align 2 {
  %2 = alloca ptr, align 8
  store ptr %0, ptr %2, align 8
  %3 = load ptr, ptr %2, align 8
  %4 = load ptr, ptr %3, align 8
  %5 = call noundef ptr @_ZN4llvm16cast_convert_valIN5clang4ExprEPNS1_4StmtES4_E4doitEPKS3_(ptr noundef %4)
  ret ptr %5
}

; Function Attrs: mustprogress nounwind uwtable
define linkonce_odr hidden noundef ptr @_ZN4llvm4castIN5clang4ExprENS1_4StmtEEEDcPT0_(ptr noundef %0) #0 comdat {
  %2 = alloca ptr, align 8
  store ptr %0, ptr %2, align 8
  %3 = call noundef ptr @_ZN4llvm8CastInfoIN5clang4ExprEPNS1_4StmtEvE6doCastERKS4_(ptr noundef nonnull align 8 dereferenceable(8) %2)
  ret ptr %3
}

; Function Attrs: mustprogress nounwind uwtable
define linkonce_odr hidden noundef zeroext i8 @_ZNK5clang4Expr13getDependenceEv(ptr noundef nonnull align 8 dereferenceable(16) %0) #0 comdat align 2 {
  %2 = alloca ptr, align 8
  store ptr %0, ptr %2, align 8
  %3 = load ptr, ptr %2, align 8
  %4 = getelementptr inbounds nuw %"class.clang::Stmt", ptr %3, i32 0, i32 0
  %5 = getelementptr inbounds nuw %"class.clang::Stmt::ExprBitfields", ptr %4, i32 0, i32 1
  %6 = load i16, ptr %5, align 1
  %7 = lshr i16 %6, 5
  %8 = and i16 %7, 31
  %9 = zext i16 %8 to i32
  %10 = trunc i32 %9 to i8
  ret i8 %10
}

; Function Attrs: mustprogress nounwind uwtable
define linkonce_odr hidden noundef ptr @_ZN5clang20ExtVectorElementExpr7getBaseEv(ptr noundef nonnull align 8 dereferenceable(36) %0) #0 comdat align 2 {
  %2 = alloca ptr, align 8
  store ptr %0, ptr %2, align 8
  %3 = load ptr, ptr %2, align 8
  %4 = getelementptr inbounds nuw %"class.clang::ExtVectorElementExpr", ptr %3, i32 0, i32 1
  %5 = load ptr, ptr %4, align 8
  %6 = call noundef ptr @_ZN4llvm4castIN5clang4ExprENS1_4StmtEEEDcPT0_(ptr noundef %5)
  ret ptr %6
}

; Function Attrs: mustprogress nounwind uwtable
define dso_local noundef zeroext i8 @_ZN5clang17computeDependenceEPNS_20ExtVectorElementExprE(ptr noundef %0) #0 {
  %2 = alloca ptr, align 8
  store ptr %0, ptr %2, align 8
  %3 = load ptr, ptr %2, align 8
  %4 = call noundef ptr @_ZN5clang20ExtVectorElementExpr7getBaseEv(ptr noundef nonnull align 8 dereferenceable(36) %3)
  %5 = call noundef zeroext i8 @_ZNK5clang4Expr13getDependenceEv(ptr noundef nonnull align 8 dereferenceable(16) %4)
  ret i8 %5
}